; Function Attrs: mustprogress nounwind uwtable
define dso_local noundef zeroext i1 @_ZN4llvm21isKnownNegativeInLoopEPKNS_4SCEVEPKNS_4LoopERNS_15ScalarEvolutionE(ptr noundef nonnull %0, ptr noundef %1, ptr noundef nonnull align 8 dereferenceable(1392) %2) local_unnamed_addr #0 {
  %4 = tail call noundef ptr @_ZNK4llvm4SCEV7getTypeEv(ptr noundef nonnull align 8 dereferenceable(30) %0) #17
  %5 = tail call noundef ptr @_ZN4llvm15ScalarEvolution11getConstantEPNS_4TypeEmb(ptr noundef nonnull align 8 dereferenceable(1392) %2, ptr noundef %4, i64 noundef 0, i1 noundef zeroext false) #17
  %6 = tail call noundef zeroext i1 @_ZN4llvm15ScalarEvolution22isAvailableAtLoopEntryEPKNS_4SCEVEPKNS_4LoopE(ptr noundef nonnull align 8 dereferenceable(1392) %2, ptr noundef nonnull %0, ptr noundef %1) #17
  br i1 %6, label %7, label %9

7:                                                ; preds = %3
  %8 = tail call noundef zeroext i1 @_ZN4llvm15ScalarEvolution24isLoopEntryGuardedByCondEPKNS_4LoopENS_7CmpInst9PredicateEPKNS_4SCEVES8_(ptr noundef nonnull align 8 dereferenceable(1392) %2, ptr noundef %1, i32 noundef 40, ptr noundef nonnull %0, ptr noundef %5) #17
  br label %9

9:                                                ; preds = %7, %3
  %10 = phi i1 [ false, %3 ], [ %8, %7 ]
  ret i1 %10
}